target datalayout = "e-m:e-p270:32:32-p271:32:32-p272:64:64-i64:64-i128:128-f80:128-n8:16:32:64-S128"
target triple = "x86_64-pc-linux-gnu"

%"class.std::vector.11" = type { %"struct.std::_Vector_base.12" }
%"struct.std::_Vector_base.12" = type { %"struct.std::_Vector_base<float, std::allocator<float>>::_Vector_impl" }
%"struct.std::_Vector_base<float, std::allocator<float>>::_Vector_impl" = type { %"struct.std::_Vector_base<float, std::allocator<float>>::_Vector_impl_data" }
%"struct.std::_Vector_base<float, std::allocator<float>>::_Vector_impl_data" = type { ptr, ptr, ptr }
%"struct.faiss::Quantizer" = type { ptr, i64, i64 }
%"class.std::vector" = type { %"struct.std::_Vector_base" }
%"struct.std::_Vector_base" = type { %"struct.std::_Vector_base<unsigned long, std::allocator<unsigned long>>::_Vector_impl" }
%"struct.std::_Vector_base<unsigned long, std::allocator<unsigned long>>::_Vector_impl" = type { %"struct.std::_Vector_base<unsigned long, std::allocator<unsigned long>>::_Vector_impl_data" }
%"struct.std::_Vector_base<unsigned long, std::allocator<unsigned long>>::_Vector_impl_data" = type { ptr, ptr, ptr }
%"struct.faiss::IndexFlat1D" = type { %"struct.faiss::IndexFlatL2", i8, %"class.std::vector.21" }
%"struct.faiss::IndexFlatL2" = type { %"struct.faiss::IndexFlat", %"class.std::vector.11" }
%"struct.faiss::IndexFlat" = type { %"struct.faiss::IndexFlatCodes" }
%"struct.faiss::IndexFlatCodes" = type { %"struct.faiss::Index.base", i64, %"class.std::vector.16" }
%"struct.faiss::Index.base" = type <{ ptr, i32, [4 x i8], i64, i8, i8, [2 x i8], i32, float }>
%"class.std::vector.16" = type { %"struct.std::_Vector_base.17" }
%"struct.std::_Vector_base.17" = type { %"struct.std::_Vector_base<unsigned char, std::allocator<unsigned char>>::_Vector_impl" }
%"struct.std::_Vector_base<unsigned char, std::allocator<unsigned char>>::_Vector_impl" = type { %"struct.std::_Vector_base<unsigned char, std::allocator<unsigned char>>::_Vector_impl_data" }
%"struct.std::_Vector_base<unsigned char, std::allocator<unsigned char>>::_Vector_impl_data" = type { ptr, ptr, ptr }
%"class.std::vector.21" = type { %"struct.std::_Vector_base.22" }
%"struct.std::_Vector_base.22" = type { %"struct.std::_Vector_base<long, std::allocator<long>>::_Vector_impl" }
%"struct.std::_Vector_base<long, std::allocator<long>>::_Vector_impl" = type { %"struct.std::_Vector_base<long, std::allocator<long>>::_Vector_impl_data" }
%"struct.std::_Vector_base<long, std::allocator<long>>::_Vector_impl_data" = type { ptr, ptr, ptr }
%"struct.faiss::LocalSearchQuantizer" = type <{ %"struct.faiss::AdditiveQuantizer.base", [4 x i8], i64, i64, i64, i64, i64, float, float, i64, i32, [4 x i8], i64, ptr, i8, [7 x i8] }>
%"struct.faiss::AdditiveQuantizer.base" = type <{ %"struct.faiss::Quantizer", i64, %"class.std::vector", %"class.std::vector.11", %"class.std::vector", i64, i64, i64, i8, i8, i8, [5 x i8], %"struct.faiss::IndexFlat1D", %"class.std::vector.11", i64, i32, float, float }>

; Function Attrs: mustprogress nounwind uwtable
define void @_ZN5faiss20LocalSearchQuantizerD2Ev(ptr noundef nonnull align 8 dereferenceable(393) %0) unnamed_addr #0 align 2 {
  %2 = alloca ptr, align 8
  store ptr %0, ptr %2, align 8
  %3 = load ptr, ptr %2, align 8
  store ptr getelementptr inbounds ({ [10 x ptr] }, ptr @_ZTVN5faiss20LocalSearchQuantizerE, i32 0, i32 0, i32 2), ptr %3, align 8
  %4 = getelementptr inbounds %"struct.faiss::LocalSearchQuantizer", ptr %3, i32 0, i32 13
  %5 = load ptr, ptr %4, align 8
  %6 = icmp eq ptr %5, null
  br i1 %6, label %11, label %7

7:                                                ; preds = %1
  %8 = load ptr, ptr %5, align 8
  %9 = getelementptr inbounds ptr, ptr %8, i64 2
  %10 = load ptr, ptr %9, align 8
  call void %10(ptr noundef nonnull align 8 dereferenceable(8) %5) #4
  br label %11

11:                                               ; preds = %7, %1
  call void @_ZN5faiss17AdditiveQuantizerD2Ev(ptr noundef nonnull align 8 dereferenceable(308) %3) #4
  ret void
}